; Function Attrs: mustprogress uwtable
define void @_ZNK10open_spiel10kuhn_poker9KuhnState17ObservationTensorEiN4absl7debian24SpanIfEE(ptr noundef nonnull align 8 dereferenceable(120) %0, i32 noundef %1, ptr %2, i64 %3) unnamed_addr #3 align 2 personality ptr @__gxx_personality_v0 {
  %5 = alloca %"class.open_spiel::ContiguousAllocator", align 8
  store ptr getelementptr inbounds inrange(-16, 24) (i8, ptr @_ZTVN10open_spiel19ContiguousAllocatorE, i64 16), ptr %5, align 8
  %6 = getelementptr inbounds nuw i8, ptr %5, i64 8
  store ptr %2, ptr %6, align 8
  %7 = getelementptr inbounds i8, ptr %5, i64 16
  store i64 %3, ptr %7, align 8
  %8 = getelementptr inbounds nuw i8, ptr %5, i64 24
  store i32 0, ptr %8, align 8
  %.not5.i.i.i.i.i = icmp eq i64 %3, 0
  br i1 %.not5.i.i.i.i.i, label %_ZN10open_spiel19ContiguousAllocatorC2EN4absl7debian24SpanIfEE.exit, label %.lr.ph.i.i.i.i.preheader.i

.lr.ph.i.i.i.i.preheader.i:                       ; preds = %4
  %9 = shl i64 %3, 2
  tail call void @llvm.memset.p0.i64(ptr align 4 %2, i8 0, i64 %9, i1 false)
  br label %_ZN10open_spiel19ContiguousAllocatorC2EN4absl7debian24SpanIfEE.exit

_ZN10open_spiel19ContiguousAllocatorC2EN4absl7debian24SpanIfEE.exit: ; preds = %4, %.lr.ph.i.i.i.i.preheader.i
  %10 = getelementptr inbounds nuw i8, ptr %0, i64 8
  %11 = load ptr, ptr %10, align 8
  %12 = getelementptr inbounds nuw i8, ptr %11, i64 280
  %13 = load ptr, ptr %12, align 8
  %14 = load ptr, ptr %13, align 8
  %15 = load ptr, ptr %14, align 8
  call void %15(ptr noundef nonnull align 8 dereferenceable(20) %13, ptr noundef nonnull align 8 dereferenceable(60) %0, i32 noundef %1, ptr noundef nonnull %5)
  ret void
}